; Function Attrs: nounwind sspstrong uwtable
define internal noundef i64 @builtin_inline_class_174(ptr noundef readonly captures(none) %0, i64 noundef %1) #4 {
  %3 = getelementptr inbounds nuw i8, ptr %0, i64 16
  %4 = load ptr, ptr %3, align 8, !tbaa !188
  %5 = getelementptr inbounds nuw i8, ptr %4, i64 32
  %6 = load ptr, ptr %5, align 8, !tbaa !197
  %7 = getelementptr i8, ptr %6, i64 -32
  %8 = load i64, ptr %7, align 8, !tbaa !13
  %9 = and i64 %8, 1
  %.not.i = icmp eq i64 %9, 0
  br i1 %.not.i, label %12, label %10

10:                                               ; preds = %2
  %11 = ashr i64 %8, 1
  br label %rb_num2long_inline.exit

12:                                               ; preds = %2
  %13 = tail call i64 @rb_num2long(i64 noundef %8) #24
  br label %rb_num2long_inline.exit

rb_num2long_inline.exit:                          ; preds = %10, %12
  %.0.i = phi i64 [ %11, %10 ], [ %13, %12 ]
  %14 = inttoptr i64 %1 to ptr
  %15 = load i64, ptr %14, align 8, !tbaa !7
  %16 = and i64 %15, 8192
  %.not.i.i = icmp eq i64 %16, 0
  br i1 %.not.i.i, label %20, label %17

17:                                               ; preds = %rb_num2long_inline.exit
  %18 = lshr i64 %15, 15
  %19 = and i64 %18, 127
  br label %rb_array_len.exit.i

20:                                               ; preds = %rb_num2long_inline.exit
  %21 = getelementptr inbounds nuw i8, ptr %14, i64 16
  %22 = load i64, ptr %21, align 8, !tbaa !12
  br label %rb_array_len.exit.i

rb_array_len.exit.i:                              ; preds = %20, %17
  %.0.i.i = phi i64 [ %19, %17 ], [ %22, %20 ]
  %23 = icmp sgt i64 %.0.i, %.0.i.i
  br i1 %23, label %ary_take_first_or_last_n.exit, label %24

24:                                               ; preds = %rb_array_len.exit.i
  %25 = icmp slt i64 %.0.i, 0
  br i1 %25, label %26, label %ary_take_first_or_last_n.exit

26:                                               ; preds = %24
  %27 = load i64, ptr @rb_eArgError, align 8, !tbaa !13
  tail call void (i64, ptr, ...) @rb_raise(i64 noundef %27, ptr noundef nonnull @.str.138) #23
  unreachable

ary_take_first_or_last_n.exit:                    ; preds = %rb_array_len.exit.i, %24
  %.011.i = phi i64 [ %.0.i, %24 ], [ %.0.i.i, %rb_array_len.exit.i ]
  %28 = sub i64 %.0.i.i, %.011.i
  %29 = load i64, ptr @rb_cArray, align 8, !tbaa !13
  %30 = tail call fastcc noundef i64 @ary_make_partial(i64 noundef %1, i64 noundef %29, i64 noundef %28, i64 noundef %.011.i)
  ret i64 %30
}